; Function Attrs: mustprogress uwtable
define hidden noundef zeroext i1 @_ZN4cvc58internal6theory11quantifiers4inst29InstMatchGeneratorMultiLinear5resetENS0_12NodeTemplateILb1EEE(ptr noundef nonnull align 8 dereferenceable(256) %0, ptr readnone captures(none) %1) unnamed_addr #3 align 2 {
  %3 = tail call noundef nonnull align 8 dereferenceable(408) ptr @_ZNK4cvc58internal6EnvObj7optionsEv(ptr noundef nonnull align 8 dereferenceable(16) %0)
  %4 = getelementptr inbounds nuw i8, ptr %3, i64 344
  %5 = load ptr, ptr %4, align 8, !tbaa !99
  %6 = getelementptr inbounds nuw i8, ptr %5, i64 309
  %7 = load i8, ptr %6, align 1, !tbaa !283, !range !322, !noundef !323
  %8 = trunc nuw i8 %7 to i1
  br i1 %8, label %12, label %9

9:                                                ; preds = %2
  %10 = tail call noundef i32 @_ZN4cvc58internal6theory11quantifiers4inst29InstMatchGeneratorMultiLinear13resetChildrenEv(ptr noundef nonnull align 8 dereferenceable(256) %0)
  %11 = icmp sgt i32 %10, 0
  br label %12

12:                                               ; preds = %2, %9
  %.0 = phi i1 [ %11, %9 ], [ true, %2 ]
  ret i1 %.0
}